; Function Attrs: nofree norecurse nosync nounwind memory(argmem: readwrite) uwtable
define internal void @SDL_Convert41To71(ptr noundef writeonly captures(none) %0, ptr noundef readonly captures(none) %1, i32 noundef %2) #5 {
  %.not23 = icmp eq i32 %2, 0
  br i1 %.not23, label %._crit_edge, label %.lr.ph.preheader

.lr.ph.preheader:                                 ; preds = %3
  %4 = add nsw i32 %2, -1
  %5 = shl nsw i32 %4, 3
  %6 = sext i32 %5 to i64
  %7 = getelementptr inbounds float, ptr %0, i64 %6
  %8 = mul nsw i32 %4, 5
  %9 = sext i32 %8 to i64
  %10 = getelementptr inbounds float, ptr %1, i64 %9
  br label %.lr.ph

.lr.ph:                                           ; preds = %.lr.ph.preheader, %.lr.ph
  %.026 = phi i32 [ %27, %.lr.ph ], [ %2, %.lr.ph.preheader ]
  %.02125 = phi ptr [ %29, %.lr.ph ], [ %7, %.lr.ph.preheader ]
  %.02224 = phi ptr [ %28, %.lr.ph ], [ %10, %.lr.ph.preheader ]
  %11 = getelementptr inbounds nuw i8, ptr %.02125, i64 28
  store float 0.000000e+00, ptr %11, align 4
  %12 = getelementptr inbounds nuw i8, ptr %.02125, i64 24
  store float 0.000000e+00, ptr %12, align 4
  %13 = getelementptr inbounds nuw i8, ptr %.02224, i64 16
  %14 = load float, ptr %13, align 4
  %15 = getelementptr inbounds nuw i8, ptr %.02125, i64 20
  store float %14, ptr %15, align 4
  %16 = getelementptr inbounds nuw i8, ptr %.02224, i64 12
  %17 = load float, ptr %16, align 4
  %18 = getelementptr inbounds nuw i8, ptr %.02125, i64 16
  store float %17, ptr %18, align 4
  %19 = getelementptr inbounds nuw i8, ptr %.02224, i64 8
  %20 = load float, ptr %19, align 4
  %21 = getelementptr inbounds nuw i8, ptr %.02125, i64 12
  store float %20, ptr %21, align 4
  %22 = getelementptr inbounds nuw i8, ptr %.02125, i64 8
  store float 0.000000e+00, ptr %22, align 4
  %23 = getelementptr inbounds nuw i8, ptr %.02224, i64 4
  %24 = load float, ptr %23, align 4
  %25 = getelementptr inbounds nuw i8, ptr %.02125, i64 4
  store float %24, ptr %25, align 4
  %26 = load float, ptr %.02224, align 4
  store float %26, ptr %.02125, align 4
  %27 = add nsw i32 %.026, -1
  %28 = getelementptr inbounds i8, ptr %.02224, i64 -20
  %29 = getelementptr inbounds i8, ptr %.02125, i64 -32
  %.not = icmp eq i32 %27, 0
  br i1 %.not, label %._crit_edge, label %.lr.ph, !llvm.loop !84

._crit_edge:                                      ; preds = %.lr.ph, %3
  ret void
}